; Function Attrs: nounwind uwtable
define dso_local i64 @range_minus(ptr noundef captures(none) %0) local_unnamed_addr #0 {
  %2 = getelementptr inbounds nuw i8, ptr %0, i64 32
  %3 = load i64, ptr %2, align 8
  %4 = inttoptr i64 %3 to ptr
  %5 = tail call ptr @pg_detoast_datum(ptr noundef %4) #14
  %6 = getelementptr inbounds nuw i8, ptr %0, i64 48
  %7 = load i64, ptr %6, align 8
  %8 = inttoptr i64 %7 to ptr
  %9 = tail call ptr @pg_detoast_datum(ptr noundef %8) #14
  %10 = getelementptr inbounds nuw i8, ptr %5, i64 4
  %11 = load i32, ptr %10, align 4
  %12 = getelementptr inbounds nuw i8, ptr %9, i64 4
  %13 = load i32, ptr %12, align 4
  %.not = icmp eq i32 %11, %13
  br i1 %.not, label %17, label %14

14:                                               ; preds = %1
  %15 = tail call zeroext i1 @errstart_cold(i32 noundef 21, ptr noundef null) #16
  tail call void @llvm.assume(i1 %15)
  %16 = tail call i32 (ptr, ...) @errmsg_internal(ptr noundef nonnull @.str.2) #14
  tail call void @errfinish(ptr noundef nonnull @.str.1, i32 noundef 981, ptr noundef nonnull @__func__.range_minus) #14
  unreachable

17:                                               ; preds = %1
  %18 = load ptr, ptr %0, align 8
  %19 = getelementptr inbounds nuw i8, ptr %18, i64 24
  %20 = load ptr, ptr %19, align 8
  %21 = icmp eq ptr %20, null
  br i1 %21, label %24, label %22

22:                                               ; preds = %17
  %23 = load i32, ptr %20, align 8
  %.not.i = icmp eq i32 %23, %11
  br i1 %.not.i, label %range_get_typcache.exit, label %24

24:                                               ; preds = %22, %17
  %25 = tail call ptr @lookup_type_cache(i32 noundef %11, i32 noundef 2048) #14
  %26 = getelementptr inbounds nuw i8, ptr %25, i64 280
  %27 = load ptr, ptr %26, align 8
  %28 = icmp eq ptr %27, null
  br i1 %28, label %29, label %32

29:                                               ; preds = %24
  %30 = tail call zeroext i1 @errstart_cold(i32 noundef 21, ptr noundef null) #16
  tail call void @llvm.assume(i1 %30)
  %31 = tail call i32 (ptr, ...) @errmsg_internal(ptr noundef nonnull @.str.12, i32 noundef %11) #14
  tail call void @errfinish(ptr noundef nonnull @.str.1, i32 noundef 1712, ptr noundef nonnull @__func__.range_get_typcache) #14
  unreachable

32:                                               ; preds = %24
  %33 = load ptr, ptr %0, align 8
  %34 = getelementptr inbounds nuw i8, ptr %33, i64 24
  store ptr %25, ptr %34, align 8
  br label %range_get_typcache.exit

range_get_typcache.exit:                          ; preds = %22, %32
  %.0.i = phi ptr [ %25, %32 ], [ %20, %22 ]
  %35 = tail call ptr @range_minus_internal(ptr noundef nonnull %.0.i, ptr noundef nonnull %5, ptr noundef nonnull %9)
  %.not14 = icmp eq ptr %35, null
  br i1 %.not14, label %38, label %36

36:                                               ; preds = %range_get_typcache.exit
  %37 = ptrtoint ptr %35 to i64
  br label %40

38:                                               ; preds = %range_get_typcache.exit
  %39 = getelementptr inbounds nuw i8, ptr %0, i64 28
  store i8 1, ptr %39, align 4
  br label %40

40:                                               ; preds = %38, %36
  %.0 = phi i64 [ %37, %36 ], [ 0, %38 ]
  ret i64 %.0
}